; Function Attrs: mustprogress uwtable
define noundef nonnull align 8 dereferenceable(24) ptr @_ZNK6google8protobuf10Reflection16GetUnknownFieldsERKNS0_7MessageE(ptr nocapture noundef nonnull readonly align 8 dereferenceable(112) %this, ptr nocapture noundef nonnull readonly align 8 dereferenceable(16) %message) local_unnamed_addr #4 align 2 {
entry:
  %metadata_offset_.i.i = getelementptr inbounds i8, ptr %this, i64 36
  %0 = load i32, ptr %metadata_offset_.i.i, align 4
  %idx.ext.i.i.i = zext i32 %0 to i64
  %add.ptr.i.i.i = getelementptr inbounds i8, ptr %message, i64 %idx.ext.i.i.i
  %1 = load i64, ptr %add.ptr.i.i.i, align 8
  %and.i = and i64 %1, 1
  %tobool.i.not = icmp eq i64 %and.i, 0
  br i1 %tobool.i.not, label %if.else.i, label %if.then.i

if.then.i:                                        ; preds = %entry
  %and.i1 = and i64 %1, -2
  %2 = inttoptr i64 %and.i1 to ptr
  %unknown_fields.i = getelementptr inbounds i8, ptr %2, i64 8
  br label %_ZNK6google8protobuf8internal16InternalMetadata14unknown_fieldsINS0_15UnknownFieldSetEEERKT_PFS7_vE.exit

if.else.i:                                        ; preds = %entry
  %call3.i = tail call noundef nonnull align 8 dereferenceable(24) ptr @_ZN6google8protobuf15UnknownFieldSet16default_instanceEv()
  br label %_ZNK6google8protobuf8internal16InternalMetadata14unknown_fieldsINS0_15UnknownFieldSetEEERKT_PFS7_vE.exit

_ZNK6google8protobuf8internal16InternalMetadata14unknown_fieldsINS0_15UnknownFieldSetEEERKT_PFS7_vE.exit: ; preds = %if.else.i, %if.then.i
  %retval.i.0 = phi ptr [ %unknown_fields.i, %if.then.i ], [ %call3.i, %if.else.i ]
  ret ptr %retval.i.0
}